target datalayout = "e-m:e-p270:32:32-p271:32:32-p272:64:64-i64:64-i128:128-f80:128-n8:16:32:64-S128"
target triple = "x86_64-pc-linux-gnu"

%class.QString = type { ptr }
%class.QObject = type { ptr, %class.QScopedPointer }
%class.QScopedPointer = type { ptr }
%class.QualityMapperDialog = type { %class.QDockWidget, %"class.Ui::QualityMapperDialogClass", ptr, ptr, %class.QGraphicsScene, [3 x ptr], double, i8, i8, %class.QList, i32, ptr, ptr, ptr, %class.QGraphicsScene, ptr, [3 x %class.QList.22], ptr, %class.QString, %class.QList, %class.QList, i8, %class.QList.25, %class.QList, ptr, ptr }
%class.QDockWidget = type { %class.QWidget }
%class.QWidget = type { %class.QObject, %class.QPaintDevice, ptr }
%class.QPaintDevice = type { ptr, i16, ptr }
%"class.Ui::QualityMapperDialogClass" = type { %class.Ui_QualityMapperDialogClass }
%class.Ui_QualityMapperDialogClass = type { ptr, ptr, ptr, ptr, ptr, ptr, ptr, ptr, ptr, ptr, ptr, ptr, ptr, ptr, ptr, ptr, ptr, ptr, ptr, ptr, ptr, ptr, ptr, ptr, ptr, ptr, ptr, ptr, ptr, ptr, ptr, ptr, ptr, ptr, ptr, ptr, ptr, ptr, ptr, ptr, ptr, ptr, ptr, ptr, ptr, ptr, ptr, ptr, ptr, ptr, ptr, ptr, ptr, ptr, ptr, ptr, ptr, ptr, ptr, ptr, ptr, ptr, ptr, ptr, ptr, ptr, ptr, ptr }
%class.QGraphicsScene = type { %class.QObject }
%class.QList.22 = type { %union.anon.24 }
%union.anon.24 = type { %struct.QListData }
%struct.QListData = type { ptr }
%class.QList.25 = type { %union.anon.27 }
%union.anon.27 = type { %struct.QListData }
%class.QList = type { %union.anon }
%union.anon = type { %struct.QListData }
%struct.CHART_INFO = type { ptr, float, float, float, float, i32, i32 }
%struct.EQUALIZER_INFO = type { float, float, float, float }

; Function Attrs: mustprogress uwtable
define void @_ZN19QualityMapperDialog22on_resetButton_clickedEv(ptr noundef nonnull align 8 dereferenceable(824) %0) #15 align 2 {
  %2 = alloca ptr, align 8
  %3 = alloca %struct.EQUALIZER_INFO, align 4
  %4 = alloca %struct.EQUALIZER_INFO, align 4
  store ptr %0, ptr %2, align 8
  %5 = load ptr, ptr %2, align 8
  %6 = getelementptr inbounds %struct.EQUALIZER_INFO, ptr %3, i32 0, i32 3
  store float 5.000000e+01, ptr %6, align 4
  %7 = getelementptr inbounds %class.QualityMapperDialog, ptr %5, i32 0, i32 3
  %8 = load ptr, ptr %7, align 8
  %9 = getelementptr inbounds %struct.CHART_INFO, ptr %8, i32 0, i32 1
  %10 = load float, ptr %9, align 8
  %11 = getelementptr inbounds %struct.EQUALIZER_INFO, ptr %3, i32 0, i32 0
  store float %10, ptr %11, align 4
  %12 = getelementptr inbounds %class.QualityMapperDialog, ptr %5, i32 0, i32 3
  %13 = load ptr, ptr %12, align 8
  %14 = getelementptr inbounds %struct.CHART_INFO, ptr %13, i32 0, i32 2
  %15 = load float, ptr %14, align 4
  %16 = getelementptr inbounds %struct.EQUALIZER_INFO, ptr %3, i32 0, i32 2
  store float %15, ptr %16, align 4
  %17 = getelementptr inbounds %struct.EQUALIZER_INFO, ptr %3, i32 0, i32 1
  store float 5.000000e-01, ptr %17, align 4
  call void @llvm.memcpy.p0.p0.i64(ptr align 4 %4, ptr align 4 %3, i64 16, i1 false)
  %18 = getelementptr inbounds { <2 x float>, <2 x float> }, ptr %4, i32 0, i32 0
  %19 = load <2 x float>, ptr %18, align 4
  %20 = getelementptr inbounds { <2 x float>, <2 x float> }, ptr %4, i32 0, i32 1
  %21 = load <2 x float>, ptr %20, align 4
  call void @_ZN19QualityMapperDialog22setEqualizerParametersE14EQUALIZER_INFO(ptr noundef nonnull align 8 dereferenceable(824) %5, <2 x float> %19, <2 x float> %21)
  ret void
}