; Function Attrs: mustprogress uwtable
define void @_ZN19QualityMapperDialog22on_resetButton_clickedEv(ptr noundef nonnull align 8 dereferenceable(824) %0) local_unnamed_addr #14 align 2 {
  %2 = getelementptr inbounds i8, ptr %0, i64 600
  %3 = load ptr, ptr %2, align 8
  %4 = getelementptr inbounds i8, ptr %3, i64 8
  %5 = load float, ptr %4, align 8
  %6 = getelementptr inbounds i8, ptr %3, i64 12
  %7 = load float, ptr %6, align 4
  %.sroa.3.8.vec.insert = insertelement <2 x float> <float poison, float 5.000000e+01>, float %7, i64 0
  %.sroa.01.4.vec.insert = insertelement <2 x float> <float poison, float 5.000000e-01>, float %5, i64 0
  tail call void @_ZN19QualityMapperDialog22setEqualizerParametersE14EQUALIZER_INFO(ptr noundef nonnull align 8 dereferenceable(824) %0, <2 x float> %.sroa.01.4.vec.insert, <2 x float> %.sroa.3.8.vec.insert)
  ret void
}